; Function Attrs: mustprogress uwtable
define noundef zeroext i1 @_ZNK5Ipopt16TSymLinearSolver15ProvidesInertiaEv(ptr nocapture noundef nonnull readonly align 8 dereferenceable(133) %0) unnamed_addr #3 align 2 {
  %2 = getelementptr inbounds i8, ptr %0, i64 72
  %3 = load ptr, ptr %2, align 8
  %4 = load ptr, ptr %3, align 8
  %5 = getelementptr inbounds i8, ptr %4, i64 64
  %6 = load ptr, ptr %5, align 8
  %7 = tail call noundef zeroext i1 %6(ptr noundef nonnull align 8 dereferenceable(49) %3)
  ret i1 %7
}